target datalayout = "e-m:e-p270:32:32-p271:32:32-p272:64:64-i64:64-i128:128-f80:128-n8:16:32:64-S128"
target triple = "x86_64-pc-linux-gnu"

%struct.IDAMemRec = type { double, ptr, ptr, i32, double, double, ptr, i32, ptr, ptr, i32, ptr, ptr, i32, i32, double, double, ptr, i32, i32, i32, ptr, ptr, i32, ptr, ptr, ptr, i32, double, i32, i32, double, ptr, ptr, i32, ptr, ptr, i32, i32, i32, double, ptr, ptr, [6 x ptr], [6 x double], [6 x double], [6 x double], [6 x double], [6 x double], ptr, ptr, ptr, ptr, ptr, ptr, ptr, ptr, ptr, ptr, ptr, ptr, ptr, ptr, ptr, [6 x ptr], ptr, ptr, ptr, ptr, [6 x ptr], ptr, ptr, ptr, ptr, ptr, ptr, ptr, ptr, ptr, ptr, ptr, ptr, ptr, ptr, [6 x ptr], ptr, ptr, ptr, ptr, ptr, double, ptr, ptr, i32, i32, i32, i32, i32, i32, i32, double, double, double, i32, double, i32, i32, i32, i32, double, double, double, double, double, double, double, double, double, double, double, double, double, double, i32, i32, i32, i32, i32, i64, double, i32, i64, i64, i64, i64, i64, i64, i64, i64, i64, i64, i64, i64, i64, i64, i64, i64, i64, i64, i64, i64, i64, i64, i64, i64, ptr, ptr, ptr, i32, i32, i32, i32, i32, i32, i32, i32, i32, i32, i32, i32, i32, ptr, ptr, ptr, ptr, ptr, ptr, i32, i32, i32, i32, i32, i32, double, double, double, ptr, i32, ptr, ptr, double, double, double, ptr, ptr, ptr, double, double, i32, i32, i64, ptr, i32, i32, ptr, i32 }
%struct.IDAadjMemRec = type { double, double, i32, i32, double, ptr, i32, ptr, i32, ptr, ptr, i32, i64, ptr, i64, i32, ptr, ptr, ptr, ptr, i32, i32, i32, i32, i32, [6 x ptr], [6 x ptr], [6 x double], ptr, ptr, ptr, ptr, i64 }
%struct.IDABMemRec = type { i32, double, ptr, i32, i32, ptr, ptr, ptr, ptr, ptr, ptr, ptr, ptr, ptr, double, ptr, ptr, ptr }

@.str = private unnamed_addr constant [5 x i8] c"IDAA\00", align 1
@.str.2 = private unnamed_addr constant [24 x i8] c"ida_mem = NULL illegal.\00", align 1
@.str.7 = private unnamed_addr constant [51 x i8] c"Illegal attempt to call before calling IDAadjInit.\00", align 1
@.str.16 = private unnamed_addr constant [25 x i8] c"Illegal value for which.\00", align 1
@.str.18 = private unnamed_addr constant [98 x i8] c"At least one backward problem requires sensitivities, but they were not stored for interpolation.\00", align 1
@.str.27 = private unnamed_addr constant [12 x i8] c"IDACalcICBS\00", align 1
@.str.28 = private unnamed_addr constant [50 x i8] c"Illegal attempt to call before calling IDAInitBS.\00", align 1

; Function Attrs: nounwind uwtable
define i32 @IDACalcICBS(ptr noundef %0, i32 noundef %1, double noundef %2, ptr noundef %3, ptr noundef %4, ptr noundef %5, ptr noundef %6) #0 {
  %8 = alloca i32, align 4
  %9 = alloca ptr, align 8
  %10 = alloca i32, align 4
  %11 = alloca double, align 8
  %12 = alloca ptr, align 8
  %13 = alloca ptr, align 8
  %14 = alloca ptr, align 8
  %15 = alloca ptr, align 8
  %16 = alloca ptr, align 8
  %17 = alloca ptr, align 8
  %18 = alloca ptr, align 8
  %19 = alloca ptr, align 8
  %20 = alloca i32, align 4
  %21 = alloca i32, align 4
  %22 = alloca i32, align 4
  store ptr %0, ptr %9, align 8, !tbaa !3
  store i32 %1, ptr %10, align 4, !tbaa !9
  store double %2, ptr %11, align 8, !tbaa !73
  store ptr %3, ptr %12, align 8, !tbaa !74
  store ptr %4, ptr %13, align 8, !tbaa !74
  store ptr %5, ptr %14, align 8, !tbaa !75
  store ptr %6, ptr %15, align 8, !tbaa !75
  call void @llvm.lifetime.start.p0(i64 8, ptr %16) #6
  call void @llvm.lifetime.start.p0(i64 8, ptr %17) #6
  call void @llvm.lifetime.start.p0(i64 8, ptr %18) #6
  call void @llvm.lifetime.start.p0(i64 8, ptr %19) #6
  call void @llvm.lifetime.start.p0(i64 4, ptr %20) #6
  call void @llvm.lifetime.start.p0(i64 4, ptr %21) #6
  %23 = load ptr, ptr %9, align 8, !tbaa !3
  %24 = icmp eq ptr %23, null
  br i1 %24, label %25, label %26

25:                                               ; preds = %7
  call void (ptr, i32, ptr, ptr, ptr, ...) @IDAProcessError(ptr noundef null, i32 noundef -20, ptr noundef @.str, ptr noundef @.str.27, ptr noundef @.str.2)
  store i32 -20, ptr %8, align 4
  store i32 1, ptr %22, align 4
  br label %135

26:                                               ; preds = %7
  %27 = load ptr, ptr %9, align 8, !tbaa !3
  store ptr %27, ptr %16, align 8, !tbaa !11
  %28 = load ptr, ptr %16, align 8, !tbaa !11
  %29 = getelementptr inbounds nuw %struct.IDAMemRec, ptr %28, i32 0, i32 205
  %30 = load i32, ptr %29, align 8, !tbaa !51
  %31 = icmp eq i32 %30, 0
  br i1 %31, label %32, label %34

32:                                               ; preds = %26
  %33 = load ptr, ptr %16, align 8, !tbaa !11
  call void (ptr, i32, ptr, ptr, ptr, ...) @IDAProcessError(ptr noundef %33, i32 noundef -101, ptr noundef @.str, ptr noundef @.str.27, ptr noundef @.str.7)
  store i32 -101, ptr %8, align 4
  store i32 1, ptr %22, align 4
  br label %135

34:                                               ; preds = %26
  %35 = load ptr, ptr %16, align 8, !tbaa !11
  %36 = getelementptr inbounds nuw %struct.IDAMemRec, ptr %35, i32 0, i32 204
  %37 = load ptr, ptr %36, align 8, !tbaa !15
  store ptr %37, ptr %17, align 8, !tbaa !13
  %38 = load ptr, ptr %17, align 8, !tbaa !13
  %39 = getelementptr inbounds nuw %struct.IDAadjMemRec, ptr %38, i32 0, i32 22
  %40 = load i32, ptr %39, align 8, !tbaa !41
  %41 = icmp ne i32 %40, 0
  br i1 %41, label %44, label %42

42:                                               ; preds = %34
  %43 = load ptr, ptr %16, align 8, !tbaa !11
  call void (ptr, i32, ptr, ptr, ptr, ...) @IDAProcessError(ptr noundef %43, i32 noundef -22, ptr noundef @.str, ptr noundef @.str.27, ptr noundef @.str.18)
  store i32 -22, ptr %8, align 4
  store i32 1, ptr %22, align 4
  br label %135

44:                                               ; preds = %34
  %45 = load i32, ptr %10, align 4, !tbaa !9
  %46 = load ptr, ptr %17, align 8, !tbaa !13
  %47 = getelementptr inbounds nuw %struct.IDAadjMemRec, ptr %46, i32 0, i32 6
  %48 = load i32, ptr %47, align 8, !tbaa !46
  %49 = icmp sge i32 %45, %48
  br i1 %49, label %50, label %52

50:                                               ; preds = %44
  %51 = load ptr, ptr %16, align 8, !tbaa !11
  call void (ptr, i32, ptr, ptr, ptr, ...) @IDAProcessError(ptr noundef %51, i32 noundef -22, ptr noundef @.str, ptr noundef @.str.27, ptr noundef @.str.16)
  store i32 -22, ptr %8, align 4
  store i32 1, ptr %22, align 4
  br label %135

52:                                               ; preds = %44
  %53 = load ptr, ptr %17, align 8, !tbaa !13
  %54 = getelementptr inbounds nuw %struct.IDAadjMemRec, ptr %53, i32 0, i32 5
  %55 = load ptr, ptr %54, align 8, !tbaa !44
  store ptr %55, ptr %18, align 8, !tbaa !132
  br label %56

56:                                               ; preds = %66, %52
  %57 = load ptr, ptr %18, align 8, !tbaa !132
  %58 = icmp ne ptr %57, null
  br i1 %58, label %59, label %70

59:                                               ; preds = %56
  %60 = load i32, ptr %10, align 4, !tbaa !9
  %61 = load ptr, ptr %18, align 8, !tbaa !132
  %62 = getelementptr inbounds nuw %struct.IDABMemRec, ptr %61, i32 0, i32 0
  %63 = load i32, ptr %62, align 8, !tbaa !192
  %64 = icmp eq i32 %60, %63
  br i1 %64, label %65, label %66

65:                                               ; preds = %59
  br label %70

66:                                               ; preds = %59
  %67 = load ptr, ptr %18, align 8, !tbaa !132
  %68 = getelementptr inbounds nuw %struct.IDABMemRec, ptr %67, i32 0, i32 17
  %69 = load ptr, ptr %68, align 8, !tbaa !133
  store ptr %69, ptr %18, align 8, !tbaa !132
  br label %56, !llvm.loop !214

70:                                               ; preds = %65, %56
  %71 = load ptr, ptr %18, align 8, !tbaa !132
  %72 = getelementptr inbounds nuw %struct.IDABMemRec, ptr %71, i32 0, i32 2
  %73 = load ptr, ptr %72, align 8, !tbaa !135
  store ptr %73, ptr %19, align 8, !tbaa !3
  %74 = load ptr, ptr %18, align 8, !tbaa !132
  %75 = getelementptr inbounds nuw %struct.IDABMemRec, ptr %74, i32 0, i32 3
  %76 = load i32, ptr %75, align 8, !tbaa !200
  %77 = icmp ne i32 %76, 0
  br i1 %77, label %80, label %78

78:                                               ; preds = %70
  %79 = load ptr, ptr %16, align 8, !tbaa !11
  call void (ptr, i32, ptr, ptr, ptr, ...) @IDAProcessError(ptr noundef %79, i32 noundef -22, ptr noundef @.str, ptr noundef @.str.27, ptr noundef @.str.28)
  store i32 -22, ptr %8, align 4
  store i32 1, ptr %22, align 4
  br label %135

80:                                               ; preds = %70
  %81 = load ptr, ptr %18, align 8, !tbaa !132
  %82 = load ptr, ptr %17, align 8, !tbaa !13
  %83 = getelementptr inbounds nuw %struct.IDAadjMemRec, ptr %82, i32 0, i32 7
  store ptr %81, ptr %83, align 8, !tbaa !45
  %84 = load ptr, ptr %12, align 8, !tbaa !74
  %85 = load ptr, ptr %17, align 8, !tbaa !13
  %86 = getelementptr inbounds nuw %struct.IDAadjMemRec, ptr %85, i32 0, i32 28
  %87 = load ptr, ptr %86, align 8, !tbaa !30
  call void @N_VScale(double noundef 1.000000e+00, ptr noundef %84, ptr noundef %87)
  %88 = load ptr, ptr %13, align 8, !tbaa !74
  %89 = load ptr, ptr %17, align 8, !tbaa !13
  %90 = getelementptr inbounds nuw %struct.IDAadjMemRec, ptr %89, i32 0, i32 29
  %91 = load ptr, ptr %90, align 8, !tbaa !31
  call void @N_VScale(double noundef 1.000000e+00, ptr noundef %88, ptr noundef %91)
  store i32 0, ptr %21, align 4, !tbaa !9
  br label %92

92:                                               ; preds = %123, %80
  %93 = load i32, ptr %21, align 4, !tbaa !9
  %94 = load ptr, ptr %16, align 8, !tbaa !11
  %95 = getelementptr inbounds nuw %struct.IDAMemRec, ptr %94, i32 0, i32 19
  %96 = load i32, ptr %95, align 4, !tbaa !62
  %97 = icmp slt i32 %93, %96
  br i1 %97, label %98, label %126

98:                                               ; preds = %92
  %99 = load ptr, ptr %14, align 8, !tbaa !75
  %100 = load i32, ptr %21, align 4, !tbaa !9
  %101 = sext i32 %100 to i64
  %102 = getelementptr inbounds ptr, ptr %99, i64 %101
  %103 = load ptr, ptr %102, align 8, !tbaa !74
  %104 = load ptr, ptr %17, align 8, !tbaa !13
  %105 = getelementptr inbounds nuw %struct.IDAadjMemRec, ptr %104, i32 0, i32 30
  %106 = load ptr, ptr %105, align 8, !tbaa !32
  %107 = load i32, ptr %21, align 4, !tbaa !9
  %108 = sext i32 %107 to i64
  %109 = getelementptr inbounds ptr, ptr %106, i64 %108
  %110 = load ptr, ptr %109, align 8, !tbaa !74
  call void @N_VScale(double noundef 1.000000e+00, ptr noundef %103, ptr noundef %110)
  %111 = load ptr, ptr %15, align 8, !tbaa !75
  %112 = load i32, ptr %21, align 4, !tbaa !9
  %113 = sext i32 %112 to i64
  %114 = getelementptr inbounds ptr, ptr %111, i64 %113
  %115 = load ptr, ptr %114, align 8, !tbaa !74
  %116 = load ptr, ptr %17, align 8, !tbaa !13
  %117 = getelementptr inbounds nuw %struct.IDAadjMemRec, ptr %116, i32 0, i32 31
  %118 = load ptr, ptr %117, align 8, !tbaa !33
  %119 = load i32, ptr %21, align 4, !tbaa !9
  %120 = sext i32 %119 to i64
  %121 = getelementptr inbounds ptr, ptr %118, i64 %120
  %122 = load ptr, ptr %121, align 8, !tbaa !74
  call void @N_VScale(double noundef 1.000000e+00, ptr noundef %115, ptr noundef %122)
  br label %123

123:                                              ; preds = %98
  %124 = load i32, ptr %21, align 4, !tbaa !9
  %125 = add nsw i32 %124, 1
  store i32 %125, ptr %21, align 4, !tbaa !9
  br label %92, !llvm.loop !215

126:                                              ; preds = %92
  %127 = load ptr, ptr %17, align 8, !tbaa !13
  %128 = getelementptr inbounds nuw %struct.IDAadjMemRec, ptr %127, i32 0, i32 24
  store i32 1, ptr %128, align 8, !tbaa !43
  %129 = load ptr, ptr %19, align 8, !tbaa !3
  %130 = load double, ptr %11, align 8, !tbaa !73
  %131 = call i32 @IDACalcIC(ptr noundef %129, i32 noundef 1, double noundef %130)
  store i32 %131, ptr %20, align 4, !tbaa !9
  %132 = load ptr, ptr %17, align 8, !tbaa !13
  %133 = getelementptr inbounds nuw %struct.IDAadjMemRec, ptr %132, i32 0, i32 24
  store i32 0, ptr %133, align 8, !tbaa !43
  %134 = load i32, ptr %20, align 4, !tbaa !9
  store i32 %134, ptr %8, align 4
  store i32 1, ptr %22, align 4
  br label %135

135:                                              ; preds = %126, %78, %50, %42, %32, %25
  call void @llvm.lifetime.end.p0(i64 4, ptr %21) #6
  call void @llvm.lifetime.end.p0(i64 4, ptr %20) #6
  call void @llvm.lifetime.end.p0(i64 8, ptr %19) #6
  call void @llvm.lifetime.end.p0(i64 8, ptr %18) #6
  call void @llvm.lifetime.end.p0(i64 8, ptr %17) #6
  call void @llvm.lifetime.end.p0(i64 8, ptr %16) #6
  %136 = load i32, ptr %8, align 4
  ret i32 %136
}