; Function Attrs: nounwind uwtable
define i32 @IDACalcICBS(ptr noundef %0, i32 noundef %1, double noundef %2, ptr noundef %3, ptr noundef %4, ptr noundef readonly captures(none) %5, ptr noundef readonly captures(none) %6) local_unnamed_addr #0 {
  %8 = icmp eq ptr %0, null
  br i1 %8, label %9, label %10

9:                                                ; preds = %7
  tail call void (ptr, i32, ptr, ptr, ptr, ...) @IDAProcessError(ptr noundef null, i32 noundef -20, ptr noundef nonnull @.str, ptr noundef nonnull @.str.27, ptr noundef nonnull @.str.2) #9
  br label %63

10:                                               ; preds = %7
  %11 = getelementptr inbounds nuw i8, ptr %0, i64 1824
  %12 = load i32, ptr %11, align 8, !tbaa !46
  %13 = icmp eq i32 %12, 0
  br i1 %13, label %14, label %15

14:                                               ; preds = %10
  tail call void (ptr, i32, ptr, ptr, ptr, ...) @IDAProcessError(ptr noundef nonnull %0, i32 noundef -101, ptr noundef nonnull @.str, ptr noundef nonnull @.str.27, ptr noundef nonnull @.str.7) #9
  br label %63

15:                                               ; preds = %10
  %16 = getelementptr inbounds nuw i8, ptr %0, i64 1816
  %17 = load ptr, ptr %16, align 8, !tbaa !3
  %18 = getelementptr inbounds nuw i8, ptr %17, i64 160
  %19 = load i32, ptr %18, align 8, !tbaa !36
  %.not = icmp eq i32 %19, 0
  br i1 %.not, label %20, label %21

20:                                               ; preds = %15
  tail call void (ptr, i32, ptr, ptr, ptr, ...) @IDAProcessError(ptr noundef nonnull %0, i32 noundef -22, ptr noundef nonnull @.str, ptr noundef nonnull @.str.27, ptr noundef nonnull @.str.18) #9
  br label %63

21:                                               ; preds = %15
  %22 = getelementptr inbounds nuw i8, ptr %17, i64 40
  %23 = load i32, ptr %22, align 8, !tbaa !41
  %.not44 = icmp slt i32 %1, %23
  br i1 %.not44, label %25, label %24

24:                                               ; preds = %21
  tail call void (ptr, i32, ptr, ptr, ptr, ...) @IDAProcessError(ptr noundef nonnull %0, i32 noundef -22, ptr noundef nonnull @.str, ptr noundef nonnull @.str.27, ptr noundef nonnull @.str.16) #9
  br label %63

25:                                               ; preds = %21
  %26 = getelementptr inbounds nuw i8, ptr %17, i64 32
  %.04147 = load ptr, ptr %26, align 8, !tbaa !122
  %.not4548 = icmp eq ptr %.04147, null
  br i1 %.not4548, label %._crit_edge, label %.lr.ph

.lr.ph:                                           ; preds = %25, %29
  %.04149 = phi ptr [ %.041, %29 ], [ %.04147, %25 ]
  %27 = load i32, ptr %.04149, align 8, !tbaa !180
  %28 = icmp eq i32 %1, %27
  br i1 %28, label %._crit_edge, label %29

29:                                               ; preds = %.lr.ph
  %30 = getelementptr inbounds nuw i8, ptr %.04149, i64 128
  %.041 = load ptr, ptr %30, align 8, !tbaa !122
  %.not45 = icmp eq ptr %.041, null
  br i1 %.not45, label %._crit_edge, label %.lr.ph, !llvm.loop !191

._crit_edge:                                      ; preds = %29, %.lr.ph, %25
  %.041.lcssa = phi ptr [ null, %25 ], [ %.04149, %.lr.ph ], [ null, %29 ]
  %31 = getelementptr inbounds nuw i8, ptr %.041.lcssa, i64 16
  %32 = load ptr, ptr %31, align 8, !tbaa !123
  %33 = getelementptr inbounds nuw i8, ptr %.041.lcssa, i64 24
  %34 = load i32, ptr %33, align 8, !tbaa !183
  %.not46 = icmp eq i32 %34, 0
  br i1 %.not46, label %35, label %36

35:                                               ; preds = %._crit_edge
  tail call void (ptr, i32, ptr, ptr, ptr, ...) @IDAProcessError(ptr noundef nonnull %0, i32 noundef -22, ptr noundef nonnull @.str, ptr noundef nonnull @.str.27, ptr noundef nonnull @.str.28) #9
  br label %63

36:                                               ; preds = %._crit_edge
  %37 = getelementptr inbounds nuw i8, ptr %17, i64 48
  store ptr %.041.lcssa, ptr %37, align 8, !tbaa !40
  %38 = getelementptr inbounds nuw i8, ptr %17, i64 320
  %39 = load ptr, ptr %38, align 8, !tbaa !48
  tail call void @N_VScale(double noundef 1.000000e+00, ptr noundef %3, ptr noundef %39) #9
  %40 = getelementptr inbounds nuw i8, ptr %17, i64 328
  %41 = load ptr, ptr %40, align 8, !tbaa !49
  tail call void @N_VScale(double noundef 1.000000e+00, ptr noundef %4, ptr noundef %41) #9
  %42 = getelementptr inbounds nuw i8, ptr %0, i64 140
  %43 = load i32, ptr %42, align 4, !tbaa !50
  %44 = icmp sgt i32 %43, 0
  br i1 %44, label %.lr.ph54, label %._crit_edge55

.lr.ph54:                                         ; preds = %36
  %45 = getelementptr inbounds nuw i8, ptr %17, i64 336
  %46 = getelementptr inbounds nuw i8, ptr %17, i64 344
  br label %47

47:                                               ; preds = %.lr.ph54, %47
  %indvars.iv = phi i64 [ 0, %.lr.ph54 ], [ %indvars.iv.next, %47 ]
  %48 = getelementptr inbounds nuw ptr, ptr %5, i64 %indvars.iv
  %49 = load ptr, ptr %48, align 8, !tbaa !68
  %50 = load ptr, ptr %45, align 8, !tbaa !51
  %51 = getelementptr inbounds nuw ptr, ptr %50, i64 %indvars.iv
  %52 = load ptr, ptr %51, align 8, !tbaa !68
  tail call void @N_VScale(double noundef 1.000000e+00, ptr noundef %49, ptr noundef %52) #9
  %53 = getelementptr inbounds nuw ptr, ptr %6, i64 %indvars.iv
  %54 = load ptr, ptr %53, align 8, !tbaa !68
  %55 = load ptr, ptr %46, align 8, !tbaa !52
  %56 = getelementptr inbounds nuw ptr, ptr %55, i64 %indvars.iv
  %57 = load ptr, ptr %56, align 8, !tbaa !68
  tail call void @N_VScale(double noundef 1.000000e+00, ptr noundef %54, ptr noundef %57) #9
  %indvars.iv.next = add nuw nsw i64 %indvars.iv, 1
  %58 = load i32, ptr %42, align 4, !tbaa !50
  %59 = sext i32 %58 to i64
  %60 = icmp slt i64 %indvars.iv.next, %59
  br i1 %60, label %47, label %._crit_edge55, !llvm.loop !192

._crit_edge55:                                    ; preds = %47, %36
  %61 = getelementptr inbounds nuw i8, ptr %17, i64 168
  store i32 1, ptr %61, align 8, !tbaa !38
  %62 = tail call i32 @IDACalcIC(ptr noundef %32, i32 noundef 1, double noundef %2) #9
  store i32 0, ptr %61, align 8, !tbaa !38
  br label %63

63:                                               ; preds = %._crit_edge55, %35, %24, %20, %14, %9
  %.040 = phi i32 [ -20, %9 ], [ -101, %14 ], [ -22, %24 ], [ %62, %._crit_edge55 ], [ -22, %35 ], [ -22, %20 ]
  ret i32 %.040
}